; Function Attrs: mustprogress nounwind uwtable
define dso_local noundef ptr @_ZN5clang10installapi19findRecordFromSliceEPKN4llvm5MachO12RecordsSliceENS1_9StringRefENS2_10EncodeKindE(ptr noundef %0, ptr %1, i64 %2, i8 noundef zeroext %3) local_unnamed_addr #0 {
  switch i8 %3, label %17 [
    i8 0, label %5
    i8 3, label %7
    i8 1, label %15
    i8 2, label %15
  ]

5:                                                ; preds = %4
  %6 = tail call noundef ptr @_ZNK4llvm5MachO12RecordsSlice10findGlobalENS_9StringRefENS0_12GlobalRecord4KindE(ptr noundef nonnull align 8 dereferenceable(304) %0, ptr %1, i64 %2, i8 noundef zeroext 0) #18
  br label %18

7:                                                ; preds = %4
  %.not.i = icmp eq i64 %2, 0
  br i1 %.not.i, label %_ZNK4llvm9StringRef8containsEc.exit, label %_ZNSt11char_traitsIcE4findEPKcmRS1_.exit.i.i.i.i

_ZNSt11char_traitsIcE4findEPKcmRS1_.exit.i.i.i.i: ; preds = %7
  %8 = tail call ptr @memchr(ptr noundef %1, i32 noundef 46, i64 noundef %2) #18
  %.not.i.i.i.i = icmp eq ptr %8, null
  br i1 %.not.i.i.i.i, label %_ZNK4llvm9StringRef8containsEc.exit, label %9

9:                                                ; preds = %_ZNSt11char_traitsIcE4findEPKcmRS1_.exit.i.i.i.i
  %10 = ptrtoint ptr %8 to i64
  %11 = ptrtoint ptr %1 to i64
  %12 = sub i64 %10, %11
  %13 = icmp ne i64 %12, -1
  br label %_ZNK4llvm9StringRef8containsEc.exit

_ZNK4llvm9StringRef8containsEc.exit:              ; preds = %7, %_ZNSt11char_traitsIcE4findEPKcmRS1_.exit.i.i.i.i, %9
  %.0.i.i.i.i = phi i1 [ %13, %9 ], [ false, %_ZNSt11char_traitsIcE4findEPKcmRS1_.exit.i.i.i.i ], [ false, %7 ]
  %14 = tail call noundef ptr @_ZNK4llvm5MachO12RecordsSlice12findObjCIVarEbNS_9StringRefE(ptr noundef nonnull align 8 dereferenceable(304) %0, i1 noundef zeroext %.0.i.i.i.i, ptr %1, i64 %2) #18
  br label %18

15:                                               ; preds = %4, %4
  %16 = tail call noundef ptr @_ZNK4llvm5MachO12RecordsSlice17findObjCInterfaceENS_9StringRefE(ptr noundef nonnull align 8 dereferenceable(304) %0, ptr %1, i64 %2) #18
  br label %18

17:                                               ; preds = %4
  unreachable

18:                                               ; preds = %15, %_ZNK4llvm9StringRef8containsEc.exit, %5
  %.0 = phi ptr [ %16, %15 ], [ %14, %_ZNK4llvm9StringRef8containsEc.exit ], [ %6, %5 ]
  ret ptr %.0
}